target datalayout = "e-m:e-p270:32:32-p271:32:32-p272:64:64-i64:64-i128:128-f80:128-n8:16:32:64-S128"
target triple = "x86_64-pc-linux-gnu"

%"class.smt::quick_checker::collector" = type { ptr, ptr, i8, i32, %class.svector, %class.vector.0, %class.vector.0, %class.hashtable }
%class.svector = type { %class.vector }
%class.vector = type { ptr }
%class.vector.0 = type { ptr }
%class.hashtable = type { %class.core_hashtable.base, [4 x i8] }
%class.core_hashtable.base = type <{ ptr, i32, i32, i32 }>
%class.symbol = type { ptr }
%class.vector.174 = type { ptr }
%class.ptr_vector.168 = type { %class.vector.169 }
%class.vector.169 = type { ptr }
%class.ptr_vector = type { %class.vector.10 }
%class.vector.10 = type { ptr }
%class.ref_vector = type { %class.ref_vector_core }
%class.ref_vector_core = type { %class.ref_manager_wrapper, %class.ptr_vector }
%class.ref_manager_wrapper = type { ptr }
%class.obj_map = type { %class.core_hashtable.5 }
%class.core_hashtable.5 = type <{ ptr, i32, i32, i32, [4 x i8] }>
%class.quantifier = type { %class.expr, i32, i32, ptr, ptr, i32, i32, i8, i8, %class.symbol, %class.symbol, i32, i32, [0 x i8] }
%class.expr = type { %class.ast }
%class.ast = type { i32, i32, i32, i32 }
%"class.smt::quick_checker" = type { ptr, ptr, %"class.smt::quick_checker::collector", %class.ref_vector, %class.vector.174, %class.map.297, %class.obj_map, i32, %class.ptr_vector.168 }
%class.map.297 = type { %class.table2map.298 }
%class.table2map.298 = type { %class.core_hashtable.299 }
%class.core_hashtable.299 = type <{ [8 x i8], ptr, i32, i32, i32, [4 x i8] }>

; Function Attrs: mustprogress uwtable
define linkonce_odr hidden void @_ZN6vectorIPN3smt5enodeELb0EjE11free_memoryEv(ptr noundef nonnull align 8 dereferenceable(8) %0) #6 comdat align 2 {
  %2 = alloca ptr, align 8
  store ptr %0, ptr %2, align 8, !tbaa !580
  %3 = load ptr, ptr %2, align 8
  %4 = getelementptr inbounds nuw %class.vector.169, ptr %3, i32 0, i32 0
  %5 = load ptr, ptr %4, align 8, !tbaa !582
  %6 = getelementptr inbounds i32, ptr %5, i64 -2
  call void @_ZN6memory10deallocateEPv(ptr noundef %6)
  ret void
}

; Function Attrs: mustprogress uwtable
define linkonce_odr hidden void @_ZN6vectorIPN3smt5enodeELb0EjE7destroyEv(ptr noundef nonnull align 8 dereferenceable(8) %0) #6 comdat align 2 {
  %2 = alloca ptr, align 8
  store ptr %0, ptr %2, align 8, !tbaa !580
  %3 = load ptr, ptr %2, align 8
  %4 = getelementptr inbounds nuw %class.vector.169, ptr %3, i32 0, i32 0
  %5 = load ptr, ptr %4, align 8, !tbaa !582
  %6 = icmp ne ptr %5, null
  br i1 %6, label %7, label %8

7:                                                ; preds = %1
  call void @_ZN6vectorIPN3smt5enodeELb0EjE11free_memoryEv(ptr noundef nonnull align 8 dereferenceable(8) %3)
  br label %8

8:                                                ; preds = %7, %1
  ret void
}

; Function Attrs: mustprogress nounwind uwtable
define linkonce_odr hidden void @_ZN6vectorIPN3smt5enodeELb0EjED2Ev(ptr noundef nonnull align 8 dereferenceable(8) %0) unnamed_addr #4 comdat align 2 personality ptr @__gxx_personality_v0 {
  %2 = alloca ptr, align 8
  store ptr %0, ptr %2, align 8, !tbaa !580
  %3 = load ptr, ptr %2, align 8
  invoke void @_ZN6vectorIPN3smt5enodeELb0EjE7destroyEv(ptr noundef nonnull align 8 dereferenceable(8) %3)
          to label %4 unwind label %5

4:                                                ; preds = %1
  ret void

5:                                                ; preds = %1
  %6 = landingpad { ptr, i32 }
          catch ptr null
  %7 = extractvalue { ptr, i32 } %6, 0
  call void @__clang_call_terminate(ptr %7) #19
  unreachable
}

; Function Attrs: inlinehint mustprogress nounwind uwtable
define linkonce_odr hidden void @_ZSt10destroy_atI10ptr_vectorIN3smt5enodeEEEvPT_(ptr noundef %0) #8 comdat {
  %2 = alloca ptr, align 8
  store ptr %0, ptr %2, align 8, !tbaa !578
  %3 = load ptr, ptr %2, align 8, !tbaa !578
  call void @_ZN6vectorIPN3smt5enodeELb0EjED2Ev(ptr noundef nonnull align 8 dereferenceable(8) %3) #3
  ret void
}

; Function Attrs: inlinehint mustprogress uwtable
define linkonce_odr hidden void @_ZSt8_DestroyI10ptr_vectorIN3smt5enodeEEEvPT_(ptr noundef %0) #7 comdat {
  %2 = alloca ptr, align 8
  store ptr %0, ptr %2, align 8, !tbaa !578
  %3 = load ptr, ptr %2, align 8, !tbaa !578
  call void @_ZSt10destroy_atI10ptr_vectorIN3smt5enodeEEEvPT_(ptr noundef %3)
  ret void
}

; Function Attrs: mustprogress uwtable
define linkonce_odr hidden noundef ptr @_ZNSt14_Destroy_n_auxILb0EE11__destroy_nIP10ptr_vectorIN3smt5enodeEEjEET_S7_T0_(ptr noundef %0, i32 noundef %1) #6 comdat align 2 {
  %3 = alloca ptr, align 8
  %4 = alloca i32, align 4
  store ptr %0, ptr %3, align 8, !tbaa !578
  store i32 %1, ptr %4, align 4, !tbaa !8
  br label %5

5:                                                ; preds = %10, %2
  %6 = load i32, ptr %4, align 4, !tbaa !8
  %7 = icmp ugt i32 %6, 0
  br i1 %7, label %8, label %15

8:                                                ; preds = %5
  %9 = load ptr, ptr %3, align 8, !tbaa !578
  call void @_ZSt8_DestroyI10ptr_vectorIN3smt5enodeEEEvPT_(ptr noundef %9)
  br label %10

10:                                               ; preds = %8
  %11 = load ptr, ptr %3, align 8, !tbaa !578
  %12 = getelementptr inbounds nuw %class.ptr_vector.168, ptr %11, i32 1
  store ptr %12, ptr %3, align 8, !tbaa !578
  %13 = load i32, ptr %4, align 4, !tbaa !8
  %14 = add i32 %13, -1
  store i32 %14, ptr %4, align 4, !tbaa !8
  br label %5, !llvm.loop !933

15:                                               ; preds = %5
  %16 = load ptr, ptr %3, align 8, !tbaa !578
  ret ptr %16
}

; Function Attrs: inlinehint mustprogress uwtable
define linkonce_odr hidden noundef ptr @_ZSt10_Destroy_nIP10ptr_vectorIN3smt5enodeEEjET_S5_T0_(ptr noundef %0, i32 noundef %1) #7 comdat {
  %3 = alloca ptr, align 8
  %4 = alloca i32, align 4
  store ptr %0, ptr %3, align 8, !tbaa !578
  store i32 %1, ptr %4, align 4, !tbaa !8
  %5 = load ptr, ptr %3, align 8, !tbaa !578
  %6 = load i32, ptr %4, align 4, !tbaa !8
  %7 = call noundef ptr @_ZNSt14_Destroy_n_auxILb0EE11__destroy_nIP10ptr_vectorIN3smt5enodeEEjEET_S7_T0_(ptr noundef %5, i32 noundef %6)
  ret ptr %7
}

; Function Attrs: inlinehint mustprogress uwtable
define linkonce_odr hidden noundef ptr @_ZSt9destroy_nIP10ptr_vectorIN3smt5enodeEEjET_S5_T0_(ptr noundef %0, i32 noundef %1) #7 comdat {
  %3 = alloca ptr, align 8
  %4 = alloca i32, align 4
  store ptr %0, ptr %3, align 8, !tbaa !578
  store i32 %1, ptr %4, align 4, !tbaa !8
  %5 = load ptr, ptr %3, align 8, !tbaa !578
  %6 = load i32, ptr %4, align 4, !tbaa !8
  %7 = call noundef ptr @_ZSt10_Destroy_nIP10ptr_vectorIN3smt5enodeEEjET_S5_T0_(ptr noundef %5, i32 noundef %6)
  ret ptr %7
}

; Function Attrs: mustprogress nounwind uwtable
define linkonce_odr hidden noundef i32 @_ZNK6vectorI10ptr_vectorIN3smt5enodeEELb1EjE4sizeEv(ptr noundef nonnull align 8 dereferenceable(8) %0) #4 comdat align 2 {
  %2 = alloca i32, align 4
  %3 = alloca ptr, align 8
  store ptr %0, ptr %3, align 8, !tbaa !615
  %4 = load ptr, ptr %3, align 8
  %5 = getelementptr inbounds nuw %class.vector.174, ptr %4, i32 0, i32 0
  %6 = load ptr, ptr %5, align 8, !tbaa !618
  %7 = icmp eq ptr %6, null
  br i1 %7, label %8, label %9

8:                                                ; preds = %1
  store i32 0, ptr %2, align 4
  br label %14

9:                                                ; preds = %1
  %10 = getelementptr inbounds nuw %class.vector.174, ptr %4, i32 0, i32 0
  %11 = load ptr, ptr %10, align 8, !tbaa !618
  %12 = getelementptr inbounds i32, ptr %11, i64 -1
  %13 = load i32, ptr %12, align 4, !tbaa !8
  store i32 %13, ptr %2, align 4
  br label %14

14:                                               ; preds = %9, %8
  %15 = load i32, ptr %2, align 4
  ret i32 %15
}

; Function Attrs: mustprogress uwtable
define linkonce_odr hidden void @_ZN6vectorI10ptr_vectorIN3smt5enodeEELb1EjE16destroy_elementsEv(ptr noundef nonnull align 8 dereferenceable(8) %0) #6 comdat align 2 {
  %2 = alloca ptr, align 8
  store ptr %0, ptr %2, align 8, !tbaa !615
  %3 = load ptr, ptr %2, align 8
  %4 = getelementptr inbounds nuw %class.vector.174, ptr %3, i32 0, i32 0
  %5 = load ptr, ptr %4, align 8, !tbaa !618
  %6 = call noundef i32 @_ZNK6vectorI10ptr_vectorIN3smt5enodeEELb1EjE4sizeEv(ptr noundef nonnull align 8 dereferenceable(8) %3)
  %7 = call noundef ptr @_ZSt9destroy_nIP10ptr_vectorIN3smt5enodeEEjET_S5_T0_(ptr noundef %5, i32 noundef %6)
  ret void
}

; Function Attrs: mustprogress nounwind uwtable
define linkonce_odr hidden noundef i32 @_ZNK10quantifier13get_num_declsEv(ptr noundef nonnull align 8 dereferenceable(80) %0) #4 comdat align 2 {
  %2 = alloca ptr, align 8
  store ptr %0, ptr %2, align 8, !tbaa !545
  %3 = load ptr, ptr %2, align 8
  %4 = getelementptr inbounds nuw %class.quantifier, ptr %3, i32 0, i32 2
  %5 = load i32, ptr %4, align 4, !tbaa !550
  ret i32 %5
}

; Function Attrs: mustprogress uwtable
define linkonce_odr hidden void @_ZN6vectorI10ptr_vectorIN3smt5enodeEELb1EjE5resetEv(ptr noundef nonnull align 8 dereferenceable(8) %0) #6 comdat align 2 {
  %2 = alloca ptr, align 8
  store ptr %0, ptr %2, align 8, !tbaa !615
  %3 = load ptr, ptr %2, align 8
  %4 = getelementptr inbounds nuw %class.vector.174, ptr %3, i32 0, i32 0
  %5 = load ptr, ptr %4, align 8, !tbaa !618
  %6 = icmp ne ptr %5, null
  br i1 %6, label %7, label %11

7:                                                ; preds = %1
  call void @_ZN6vectorI10ptr_vectorIN3smt5enodeEELb1EjE16destroy_elementsEv(ptr noundef nonnull align 8 dereferenceable(8) %3)
  %8 = getelementptr inbounds nuw %class.vector.174, ptr %3, i32 0, i32 0
  %9 = load ptr, ptr %8, align 8, !tbaa !618
  %10 = getelementptr inbounds i32, ptr %9, i64 -1
  store i32 0, ptr %10, align 4, !tbaa !8
  br label %11

11:                                               ; preds = %7, %1
  ret void
}

; Function Attrs: mustprogress uwtable
define hidden noundef zeroext i1 @_ZN3smt13quick_checker19instantiate_not_satEP10quantifier(ptr noundef nonnull align 8 dereferenceable(184) %0, ptr noundef %1) #6 align 2 {
  %3 = alloca ptr, align 8
  %4 = alloca ptr, align 8
  store ptr %0, ptr %3, align 8, !tbaa !629
  store ptr %1, ptr %4, align 8, !tbaa !545
  %5 = load ptr, ptr %3, align 8
  %6 = getelementptr inbounds nuw %"class.smt::quick_checker", ptr %5, i32 0, i32 4
  call void @_ZN6vectorI10ptr_vectorIN3smt5enodeEELb1EjE5resetEv(ptr noundef nonnull align 8 dereferenceable(8) %6)
  %7 = getelementptr inbounds nuw %"class.smt::quick_checker", ptr %5, i32 0, i32 2
  %8 = load ptr, ptr %4, align 8, !tbaa !545
  %9 = getelementptr inbounds nuw %"class.smt::quick_checker", ptr %5, i32 0, i32 4
  call void @_ZN3smt13quick_checker9collectorclEP10quantifierbR6vectorI10ptr_vectorINS_5enodeEELb1EjE(ptr noundef nonnull align 8 dereferenceable(72) %7, ptr noundef %8, i1 noundef zeroext false, ptr noundef nonnull align 8 dereferenceable(8) %9)
  %10 = load ptr, ptr %4, align 8, !tbaa !545
  %11 = call noundef i32 @_ZNK10quantifier13get_num_declsEv(ptr noundef nonnull align 8 dereferenceable(80) %10)
  %12 = getelementptr inbounds nuw %"class.smt::quick_checker", ptr %5, i32 0, i32 7
  store i32 %11, ptr %12, align 8, !tbaa !658
  %13 = load ptr, ptr %4, align 8, !tbaa !545
  %14 = call noundef zeroext i1 @_ZN3smt13quick_checker18process_candidatesEP10quantifierb(ptr noundef nonnull align 8 dereferenceable(184) %5, ptr noundef %13, i1 noundef zeroext false)
  ret i1 %14
}