; Function Attrs: mustprogress uwtable
define hidden noundef zeroext i1 @_ZN3smt13quick_checker19instantiate_not_satEP10quantifier(ptr noundef nonnull align 8 dereferenceable(184) %0, ptr noundef %1) local_unnamed_addr #4 align 2 personality ptr @__gxx_personality_v0 {
  %3 = getelementptr inbounds nuw i8, ptr %0, i64 104
  %4 = load ptr, ptr %3, align 8, !tbaa !550
  %.not.i = icmp eq ptr %4, null
  br i1 %.not.i, label %_ZN6vectorI10ptr_vectorIN3smt5enodeEELb1EjE5resetEv.exit, label %_ZNK6vectorI10ptr_vectorIN3smt5enodeEELb1EjE4sizeEv.exit.i.i

_ZNK6vectorI10ptr_vectorIN3smt5enodeEELb1EjE4sizeEv.exit.i.i: ; preds = %2
  %5 = getelementptr inbounds i8, ptr %4, i64 -4
  %6 = load i32, ptr %5, align 4, !tbaa !520
  %.not6.i.i.i.i.i = icmp eq i32 %6, 0
  br i1 %.not6.i.i.i.i.i, label %_ZN6vectorI10ptr_vectorIN3smt5enodeEELb1EjE16destroy_elementsEv.exit.i, label %.lr.ph.i.i.i.i.i

.lr.ph.i.i.i.i.i:                                 ; preds = %_ZNK6vectorI10ptr_vectorIN3smt5enodeEELb1EjE4sizeEv.exit.i.i, %_ZSt8_DestroyI10ptr_vectorIN3smt5enodeEEEvPT_.exit.i.i.i.i.i
  %.08.i.i.i.i.i = phi i32 [ %14, %_ZSt8_DestroyI10ptr_vectorIN3smt5enodeEEEvPT_.exit.i.i.i.i.i ], [ %6, %_ZNK6vectorI10ptr_vectorIN3smt5enodeEELb1EjE4sizeEv.exit.i.i ]
  %.047.i.i.i.i.i = phi ptr [ %13, %_ZSt8_DestroyI10ptr_vectorIN3smt5enodeEEEvPT_.exit.i.i.i.i.i ], [ %4, %_ZNK6vectorI10ptr_vectorIN3smt5enodeEELb1EjE4sizeEv.exit.i.i ]
  %7 = load ptr, ptr %.047.i.i.i.i.i, align 8, !tbaa !551
  %.not.i.i.i.i.i.i.i.i.i = icmp eq ptr %7, null
  br i1 %.not.i.i.i.i.i.i.i.i.i, label %_ZSt8_DestroyI10ptr_vectorIN3smt5enodeEEEvPT_.exit.i.i.i.i.i, label %8

8:                                                ; preds = %.lr.ph.i.i.i.i.i
  %9 = getelementptr inbounds i8, ptr %7, i64 -8
  invoke void @_ZN6memory10deallocateEPv(ptr noundef nonnull %9)
          to label %_ZSt8_DestroyI10ptr_vectorIN3smt5enodeEEEvPT_.exit.i.i.i.i.i unwind label %10

10:                                               ; preds = %8
  %11 = landingpad { ptr, i32 }
          catch ptr null
  %12 = extractvalue { ptr, i32 } %11, 0
  tail call void @__clang_call_terminate(ptr %12) #20
  unreachable

_ZSt8_DestroyI10ptr_vectorIN3smt5enodeEEEvPT_.exit.i.i.i.i.i: ; preds = %8, %.lr.ph.i.i.i.i.i
  %13 = getelementptr inbounds nuw i8, ptr %.047.i.i.i.i.i, i64 8
  %14 = add i32 %.08.i.i.i.i.i, -1
  %.not.i.i.i.i.i = icmp eq i32 %14, 0
  br i1 %.not.i.i.i.i.i, label %_ZN6vectorI10ptr_vectorIN3smt5enodeEELb1EjE16destroy_elementsEv.exit.loopexit.i, label %.lr.ph.i.i.i.i.i, !llvm.loop !619

_ZN6vectorI10ptr_vectorIN3smt5enodeEELb1EjE16destroy_elementsEv.exit.loopexit.i: ; preds = %_ZSt8_DestroyI10ptr_vectorIN3smt5enodeEEEvPT_.exit.i.i.i.i.i
  %.pre.i = load ptr, ptr %3, align 8, !tbaa !550
  br label %_ZN6vectorI10ptr_vectorIN3smt5enodeEELb1EjE16destroy_elementsEv.exit.i

_ZN6vectorI10ptr_vectorIN3smt5enodeEELb1EjE16destroy_elementsEv.exit.i: ; preds = %_ZN6vectorI10ptr_vectorIN3smt5enodeEELb1EjE16destroy_elementsEv.exit.loopexit.i, %_ZNK6vectorI10ptr_vectorIN3smt5enodeEELb1EjE4sizeEv.exit.i.i
  %15 = phi ptr [ %.pre.i, %_ZN6vectorI10ptr_vectorIN3smt5enodeEELb1EjE16destroy_elementsEv.exit.loopexit.i ], [ %4, %_ZNK6vectorI10ptr_vectorIN3smt5enodeEELb1EjE4sizeEv.exit.i.i ]
  %16 = getelementptr inbounds i8, ptr %15, i64 -4
  store i32 0, ptr %16, align 4, !tbaa !520
  br label %_ZN6vectorI10ptr_vectorIN3smt5enodeEELb1EjE5resetEv.exit

_ZN6vectorI10ptr_vectorIN3smt5enodeEELb1EjE5resetEv.exit: ; preds = %2, %_ZN6vectorI10ptr_vectorIN3smt5enodeEELb1EjE16destroy_elementsEv.exit.i
  %17 = getelementptr inbounds nuw i8, ptr %0, i64 16
  tail call void @_ZN3smt13quick_checker9collectorclEP10quantifierbR6vectorI10ptr_vectorINS_5enodeEELb1EjE(ptr noundef nonnull align 8 dereferenceable(72) %17, ptr noundef %1, i1 noundef zeroext false, ptr noundef nonnull align 8 dereferenceable(8) %3)
  %18 = getelementptr inbounds nuw i8, ptr %1, i64 20
  %19 = load i32, ptr %18, align 4, !tbaa !526
  %20 = getelementptr inbounds nuw i8, ptr %0, i64 168
  store i32 %19, ptr %20, align 8, !tbaa !624
  %21 = tail call noundef zeroext i1 @_ZN3smt13quick_checker18process_candidatesEP10quantifierb(ptr noundef nonnull align 8 dereferenceable(184) %0, ptr noundef nonnull %1, i1 noundef zeroext false)
  ret i1 %21
}